target datalayout = "e-m:e-p270:32:32-p271:32:32-p272:64:64-i64:64-i128:128-f80:128-n8:16:32:64-S128"
target triple = "x86_64-pc-linux-gnu"

%"class.std::__shared_count" = type { ptr }
%"class.toku::lock_request" = type { i64, i64, i64, ptr, ptr, %struct.__toku_dbt, %struct.__toku_dbt, i32, ptr, i32, i32, %"class.std::shared_ptr.0", i8, ptr, ptr, ptr, ptr, ptr, %"class.std::function" }
%struct.__toku_dbt = type { ptr, i64, i64, i32 }
%"class.std::shared_ptr.0" = type { %"class.std::__shared_ptr.1" }
%"class.std::__shared_ptr.1" = type { ptr, %"class.std::__shared_count" }
%"class.std::function" = type { %"class.std::_Function_base", ptr }
%"class.std::_Function_base" = type { %"union.std::_Any_data", ptr }
%"union.std::_Any_data" = type { %"union.std::_Nocopy_types" }
%"union.std::_Nocopy_types" = type { { i64, i64 } }
%"struct.toku::lt_lock_request_info" = type <{ %"class.toku::omt", %"struct.std::atomic", [7 x i8], %"class.std::shared_ptr.3", i8, [7 x i8], %"struct.toku::lt_counters", %"struct.std::atomic.6", i64, %struct.toku_mutex_t, %struct.toku_cond_t, i8, [7 x i8] }>
%"class.toku::omt" = type { i8, i32, %union.anon }
%union.anon = type { %"struct.toku::omt<toku::lock_request *>::omt_array" }
%"struct.toku::omt<toku::lock_request *>::omt_array" = type { i32, i32, ptr }
%"struct.std::atomic" = type { %"struct.std::__atomic_base" }
%"struct.std::__atomic_base" = type { i8 }
%"class.std::shared_ptr.3" = type { %"class.std::__shared_ptr.4" }
%"class.std::__shared_ptr.4" = type { ptr, %"class.std::__shared_count" }
%"struct.toku::lt_counters" = type { i64, i64, i64, i64, i64 }
%"struct.std::atomic.6" = type { %"struct.std::__atomic_base.7" }
%"struct.std::__atomic_base.7" = type { i64 }
%struct.toku_mutex_t = type { %union.pthread_mutex_t, ptr }
%union.pthread_mutex_t = type { %struct.__pthread_mutex_s }
%struct.__pthread_mutex_s = type { i32, i32, i32, i32, i32, i16, i16, %struct.__pthread_internal_list }
%struct.__pthread_internal_list = type { ptr, ptr }
%struct.toku_cond_t = type { %union.pthread_cond_t, ptr }
%union.pthread_cond_t = type { %struct.__pthread_cond_s }
%struct.__pthread_cond_s = type { %union.__atomic_wide_counter, %union.__atomic_wide_counter, [2 x i32], [2 x i32], i32, i32, [2 x i32] }
%union.__atomic_wide_counter = type { i64 }
%"struct.toku::omt<toku::lock_request *>::omt_tree" = type { %"class.toku::omt_internal::subtree_templated", i32, ptr }
%"class.toku::omt_internal::subtree_templated" = type { i32 }

; Function Attrs: mustprogress nounwind uwtable
define linkonce_odr void @_ZN4toku3omtIPNS_12lock_requestES2_Lb0EE7copyoutEPS2_PKS2_(ptr noundef nonnull %0, ptr noundef nonnull %1) #3 comdat align 2 {
  %3 = alloca ptr, align 8
  %4 = alloca ptr, align 8
  store ptr %0, ptr %3, align 8, !tbaa !140
  store ptr %1, ptr %4, align 8, !tbaa !140
  %5 = load ptr, ptr %4, align 8, !tbaa !140
  %6 = load ptr, ptr %5, align 8, !tbaa !4
  %7 = load ptr, ptr %3, align 8, !tbaa !140
  store ptr %6, ptr %7, align 8, !tbaa !4
  ret void
}

; Function Attrs: mustprogress nounwind uwtable
define noundef i32 @_ZN4toku12lock_request13find_by_txnidERKPS0_RKm(ptr noundef nonnull align 8 dereferenceable(8) %0, ptr noundef nonnull align 8 dereferenceable(8) %1) #3 align 2 {
  %3 = alloca i32, align 4
  %4 = alloca ptr, align 8
  %5 = alloca ptr, align 8
  %6 = alloca i64, align 8
  %7 = alloca i32, align 4
  store ptr %0, ptr %4, align 8, !tbaa !140
  store ptr %1, ptr %5, align 8, !tbaa !64
  call void @llvm.lifetime.start.p0(i64 8, ptr %6) #17
  %8 = load ptr, ptr %4, align 8, !tbaa !140
  %9 = load ptr, ptr %8, align 8, !tbaa !4
  %10 = getelementptr inbounds nuw %"class.toku::lock_request", ptr %9, i32 0, i32 0
  %11 = load i64, ptr %10, align 8, !tbaa !11
  store i64 %11, ptr %6, align 8, !tbaa !48
  %12 = load i64, ptr %6, align 8, !tbaa !48
  %13 = load ptr, ptr %5, align 8, !tbaa !64
  %14 = load i64, ptr %13, align 8, !tbaa !48
  %15 = icmp ult i64 %12, %14
  br i1 %15, label %16, label %17

16:                                               ; preds = %2
  store i32 -1, ptr %3, align 4
  store i32 1, ptr %7, align 4
  br label %24

17:                                               ; preds = %2
  %18 = load i64, ptr %6, align 8, !tbaa !48
  %19 = load ptr, ptr %5, align 8, !tbaa !64
  %20 = load i64, ptr %19, align 8, !tbaa !48
  %21 = icmp eq i64 %18, %20
  br i1 %21, label %22, label %23

22:                                               ; preds = %17
  store i32 0, ptr %3, align 4
  store i32 1, ptr %7, align 4
  br label %24

23:                                               ; preds = %17
  store i32 1, ptr %3, align 4
  store i32 1, ptr %7, align 4
  br label %24

24:                                               ; preds = %23, %22, %16
  call void @llvm.lifetime.end.p0(i64 8, ptr %6) #17
  %25 = load i32, ptr %3, align 4
  ret i32 %25
}

; Function Attrs: mustprogress nounwind uwtable
define linkonce_odr noundef i32 @_ZNK4toku3omtIPNS_12lock_requestES2_Lb0EE24find_internal_zero_arrayImTnPFiRKS2_RKT_EXadL_ZNS1_13find_by_txnidES6_RKmEEEEiS9_PS2_Pj(ptr noundef nonnull align 8 dereferenceable(24) %0, ptr noundef nonnull align 8 dereferenceable(8) %1, ptr noundef %2, ptr noundef %3) #3 comdat align 2 {
  %5 = alloca i32, align 4
  %6 = alloca ptr, align 8
  %7 = alloca ptr, align 8
  %8 = alloca ptr, align 8
  %9 = alloca ptr, align 8
  %10 = alloca i32, align 4
  %11 = alloca i32, align 4
  %12 = alloca i32, align 4
  %13 = alloca i32, align 4
  %14 = alloca i32, align 4
  %15 = alloca i32, align 4
  %16 = alloca i32, align 4
  store ptr %0, ptr %6, align 8, !tbaa !136
  store ptr %1, ptr %7, align 8, !tbaa !64
  store ptr %2, ptr %8, align 8, !tbaa !140
  store ptr %3, ptr %9, align 8, !tbaa !147
  %17 = load ptr, ptr %6, align 8
  call void @llvm.lifetime.start.p0(i64 4, ptr %10) #17
  %18 = getelementptr inbounds nuw %"class.toku::omt", ptr %17, i32 0, i32 2
  %19 = getelementptr inbounds nuw %"struct.toku::omt<toku::lock_request *>::omt_array", ptr %18, i32 0, i32 0
  %20 = load i32, ptr %19, align 8, !tbaa !139
  store i32 %20, ptr %10, align 4, !tbaa !61
  call void @llvm.lifetime.start.p0(i64 4, ptr %11) #17
  %21 = getelementptr inbounds nuw %"class.toku::omt", ptr %17, i32 0, i32 2
  %22 = getelementptr inbounds nuw %"struct.toku::omt<toku::lock_request *>::omt_array", ptr %21, i32 0, i32 0
  %23 = load i32, ptr %22, align 8, !tbaa !139
  %24 = getelementptr inbounds nuw %"class.toku::omt", ptr %17, i32 0, i32 2
  %25 = getelementptr inbounds nuw %"struct.toku::omt<toku::lock_request *>::omt_array", ptr %24, i32 0, i32 1
  %26 = load i32, ptr %25, align 4, !tbaa !139
  %27 = add i32 %23, %26
  store i32 %27, ptr %11, align 4, !tbaa !61
  call void @llvm.lifetime.start.p0(i64 4, ptr %12) #17
  store i32 -1, ptr %12, align 4, !tbaa !61
  call void @llvm.lifetime.start.p0(i64 4, ptr %13) #17
  store i32 -1, ptr %13, align 4, !tbaa !61
  br label %28

28:                                               ; preds = %60, %4
  %29 = load i32, ptr %10, align 4, !tbaa !61
  %30 = load i32, ptr %11, align 4, !tbaa !61
  %31 = icmp ne i32 %29, %30
  br i1 %31, label %32, label %61

32:                                               ; preds = %28
  call void @llvm.lifetime.start.p0(i64 4, ptr %14) #17
  %33 = load i32, ptr %10, align 4, !tbaa !61
  %34 = load i32, ptr %11, align 4, !tbaa !61
  %35 = add i32 %33, %34
  %36 = udiv i32 %35, 2
  store i32 %36, ptr %14, align 4, !tbaa !61
  call void @llvm.lifetime.start.p0(i64 4, ptr %15) #17
  %37 = getelementptr inbounds nuw %"class.toku::omt", ptr %17, i32 0, i32 2
  %38 = getelementptr inbounds nuw %"struct.toku::omt<toku::lock_request *>::omt_array", ptr %37, i32 0, i32 2
  %39 = load ptr, ptr %38, align 8, !tbaa !139
  %40 = load i32, ptr %14, align 4, !tbaa !61
  %41 = zext i32 %40 to i64
  %42 = getelementptr inbounds nuw ptr, ptr %39, i64 %41
  %43 = load ptr, ptr %7, align 8, !tbaa !64
  %44 = call noundef i32 @_ZN4toku12lock_request13find_by_txnidERKPS0_RKm(ptr noundef nonnull align 8 dereferenceable(8) %42, ptr noundef nonnull align 8 dereferenceable(8) %43)
  store i32 %44, ptr %15, align 4, !tbaa !61
  %45 = load i32, ptr %15, align 4, !tbaa !61
  %46 = icmp slt i32 %45, 0
  br i1 %46, label %47, label %50

47:                                               ; preds = %32
  %48 = load i32, ptr %14, align 4, !tbaa !61
  %49 = add i32 %48, 1
  store i32 %49, ptr %10, align 4, !tbaa !61
  br label %60

50:                                               ; preds = %32
  %51 = load i32, ptr %15, align 4, !tbaa !61
  %52 = icmp sgt i32 %51, 0
  br i1 %52, label %53, label %56

53:                                               ; preds = %50
  %54 = load i32, ptr %14, align 4, !tbaa !61
  store i32 %54, ptr %12, align 4, !tbaa !61
  %55 = load i32, ptr %14, align 4, !tbaa !61
  store i32 %55, ptr %11, align 4, !tbaa !61
  br label %59

56:                                               ; preds = %50
  %57 = load i32, ptr %14, align 4, !tbaa !61
  store i32 %57, ptr %13, align 4, !tbaa !61
  %58 = load i32, ptr %14, align 4, !tbaa !61
  store i32 %58, ptr %11, align 4, !tbaa !61
  br label %59

59:                                               ; preds = %56, %53
  br label %60

60:                                               ; preds = %59, %47
  call void @llvm.lifetime.end.p0(i64 4, ptr %15) #17
  call void @llvm.lifetime.end.p0(i64 4, ptr %14) #17
  br label %28, !llvm.loop !277

61:                                               ; preds = %28
  %62 = load i32, ptr %13, align 4, !tbaa !61
  %63 = icmp ne i32 %62, -1
  br i1 %63, label %64, label %82

64:                                               ; preds = %61
  %65 = load ptr, ptr %8, align 8, !tbaa !140
  %66 = icmp ne ptr %65, null
  br i1 %66, label %67, label %75

67:                                               ; preds = %64
  %68 = load ptr, ptr %8, align 8, !tbaa !140
  %69 = getelementptr inbounds nuw %"class.toku::omt", ptr %17, i32 0, i32 2
  %70 = getelementptr inbounds nuw %"struct.toku::omt<toku::lock_request *>::omt_array", ptr %69, i32 0, i32 2
  %71 = load ptr, ptr %70, align 8, !tbaa !139
  %72 = load i32, ptr %13, align 4, !tbaa !61
  %73 = zext i32 %72 to i64
  %74 = getelementptr inbounds nuw ptr, ptr %71, i64 %73
  call void @_ZN4toku3omtIPNS_12lock_requestES2_Lb0EE7copyoutEPS2_PKS2_(ptr noundef %68, ptr noundef %74)
  br label %75

75:                                               ; preds = %67, %64
  %76 = load i32, ptr %13, align 4, !tbaa !61
  %77 = getelementptr inbounds nuw %"class.toku::omt", ptr %17, i32 0, i32 2
  %78 = getelementptr inbounds nuw %"struct.toku::omt<toku::lock_request *>::omt_array", ptr %77, i32 0, i32 0
  %79 = load i32, ptr %78, align 8, !tbaa !139
  %80 = sub i32 %76, %79
  %81 = load ptr, ptr %9, align 8, !tbaa !147
  store i32 %80, ptr %81, align 4, !tbaa !61
  store i32 0, ptr %5, align 4
  store i32 1, ptr %16, align 4
  br label %98

82:                                               ; preds = %61
  %83 = load i32, ptr %12, align 4, !tbaa !61
  %84 = icmp ne i32 %83, -1
  br i1 %84, label %85, label %92

85:                                               ; preds = %82
  %86 = load i32, ptr %12, align 4, !tbaa !61
  %87 = getelementptr inbounds nuw %"class.toku::omt", ptr %17, i32 0, i32 2
  %88 = getelementptr inbounds nuw %"struct.toku::omt<toku::lock_request *>::omt_array", ptr %87, i32 0, i32 0
  %89 = load i32, ptr %88, align 8, !tbaa !139
  %90 = sub i32 %86, %89
  %91 = load ptr, ptr %9, align 8, !tbaa !147
  store i32 %90, ptr %91, align 4, !tbaa !61
  br label %97

92:                                               ; preds = %82
  %93 = getelementptr inbounds nuw %"class.toku::omt", ptr %17, i32 0, i32 2
  %94 = getelementptr inbounds nuw %"struct.toku::omt<toku::lock_request *>::omt_array", ptr %93, i32 0, i32 1
  %95 = load i32, ptr %94, align 4, !tbaa !139
  %96 = load ptr, ptr %9, align 8, !tbaa !147
  store i32 %95, ptr %96, align 4, !tbaa !61
  br label %97

97:                                               ; preds = %92, %85
  store i32 -30989, ptr %5, align 4
  store i32 1, ptr %16, align 4
  br label %98

98:                                               ; preds = %97, %75
  call void @llvm.lifetime.end.p0(i64 4, ptr %13) #17
  call void @llvm.lifetime.end.p0(i64 4, ptr %12) #17
  call void @llvm.lifetime.end.p0(i64 4, ptr %11) #17
  call void @llvm.lifetime.end.p0(i64 4, ptr %10) #17
  %99 = load i32, ptr %5, align 4
  ret i32 %99
}

; Function Attrs: mustprogress uwtable
define linkonce_odr noundef i32 @_ZNK4toku3omtIPNS_12lock_requestES2_Lb0EE9find_zeroImTnPFiRKS2_RKT_EXadL_ZNS1_13find_by_txnidES6_RKmEEEEiS9_PS2_Pj(ptr noundef nonnull align 8 dereferenceable(24) %0, ptr noundef nonnull align 8 dereferenceable(8) %1, ptr noundef %2, ptr noundef %3) #0 comdat align 2 {
  %5 = alloca ptr, align 8
  %6 = alloca ptr, align 8
  %7 = alloca ptr, align 8
  %8 = alloca ptr, align 8
  %9 = alloca i32, align 4
  %10 = alloca ptr, align 8
  %11 = alloca i32, align 4
  store ptr %0, ptr %5, align 8, !tbaa !136
  store ptr %1, ptr %6, align 8, !tbaa !64
  store ptr %2, ptr %7, align 8, !tbaa !140
  store ptr %3, ptr %8, align 8, !tbaa !147
  %12 = load ptr, ptr %5, align 8
  call void @llvm.lifetime.start.p0(i64 4, ptr %9) #17
  call void @llvm.lifetime.start.p0(i64 8, ptr %10) #17
  %13 = load ptr, ptr %8, align 8, !tbaa !147
  %14 = icmp ne ptr %13, null
  br i1 %14, label %15, label %17

15:                                               ; preds = %4
  %16 = load ptr, ptr %8, align 8, !tbaa !147
  br label %18

17:                                               ; preds = %4
  br label %18

18:                                               ; preds = %17, %15
  %19 = phi ptr [ %16, %15 ], [ %9, %17 ]
  store ptr %19, ptr %10, align 8, !tbaa !147
  call void @llvm.lifetime.start.p0(i64 4, ptr %11) #17
  %20 = getelementptr inbounds nuw %"class.toku::omt", ptr %12, i32 0, i32 0
  %21 = load i8, ptr %20, align 8, !tbaa !138, !range !53, !noundef !54
  %22 = trunc i8 %21 to i1
  br i1 %22, label %23, label %28

23:                                               ; preds = %18
  %24 = load ptr, ptr %6, align 8, !tbaa !64
  %25 = load ptr, ptr %7, align 8, !tbaa !140
  %26 = load ptr, ptr %10, align 8, !tbaa !147
  %27 = call noundef i32 @_ZNK4toku3omtIPNS_12lock_requestES2_Lb0EE24find_internal_zero_arrayImTnPFiRKS2_RKT_EXadL_ZNS1_13find_by_txnidES6_RKmEEEEiS9_PS2_Pj(ptr noundef nonnull align 8 dereferenceable(24) %12, ptr noundef nonnull align 8 dereferenceable(8) %24, ptr noundef %25, ptr noundef %26)
  store i32 %27, ptr %11, align 4, !tbaa !61
  br label %35

28:                                               ; preds = %18
  %29 = getelementptr inbounds nuw %"class.toku::omt", ptr %12, i32 0, i32 2
  %30 = getelementptr inbounds nuw %"struct.toku::omt<toku::lock_request *>::omt_tree", ptr %29, i32 0, i32 0
  %31 = load ptr, ptr %6, align 8, !tbaa !64
  %32 = load ptr, ptr %7, align 8, !tbaa !140
  %33 = load ptr, ptr %10, align 8, !tbaa !147
  %34 = call noundef i32 @_ZNK4toku3omtIPNS_12lock_requestES2_Lb0EE18find_internal_zeroImTnPFiRKS2_RKT_EXadL_ZNS1_13find_by_txnidES6_RKmEEEEiRKNS_12omt_internal17subtree_templatedILb0EEES9_PS2_Pj(ptr noundef nonnull align 8 dereferenceable(24) %12, ptr noundef nonnull align 4 dereferenceable(4) %30, ptr noundef nonnull align 8 dereferenceable(8) %31, ptr noundef %32, ptr noundef %33)
  store i32 %34, ptr %11, align 4, !tbaa !61
  br label %35

35:                                               ; preds = %28, %23
  %36 = load i32, ptr %11, align 4, !tbaa !61
  call void @llvm.lifetime.end.p0(i64 4, ptr %11) #17
  call void @llvm.lifetime.end.p0(i64 8, ptr %10) #17
  call void @llvm.lifetime.end.p0(i64 4, ptr %9) #17
  ret i32 %36
}

; Function Attrs: mustprogress uwtable
define noundef ptr @_ZN4toku12lock_request17find_lock_requestERKm(ptr noundef nonnull align 8 dereferenceable(224) %0, ptr noundef nonnull align 8 dereferenceable(8) %1) #0 align 2 {
  %3 = alloca ptr, align 8
  %4 = alloca ptr, align 8
  %5 = alloca ptr, align 8
  %6 = alloca i32, align 4
  store ptr %0, ptr %3, align 8, !tbaa !4
  store ptr %1, ptr %4, align 8, !tbaa !64
  %7 = load ptr, ptr %3, align 8
  call void @llvm.lifetime.start.p0(i64 8, ptr %5) #17
  call void @llvm.lifetime.start.p0(i64 4, ptr %6) #17
  %8 = getelementptr inbounds nuw %"class.toku::lock_request", ptr %7, i32 0, i32 13
  %9 = load ptr, ptr %8, align 8, !tbaa !37
  %10 = getelementptr inbounds nuw %"struct.toku::lt_lock_request_info", ptr %9, i32 0, i32 0
  %11 = load ptr, ptr %4, align 8, !tbaa !64
  %12 = call noundef i32 @_ZNK4toku3omtIPNS_12lock_requestES2_Lb0EE9find_zeroImTnPFiRKS2_RKT_EXadL_ZNS1_13find_by_txnidES6_RKmEEEEiS9_PS2_Pj(ptr noundef nonnull align 8 dereferenceable(24) %10, ptr noundef nonnull align 8 dereferenceable(8) %11, ptr noundef %5, ptr noundef null)
  store i32 %12, ptr %6, align 4, !tbaa !61
  %13 = load i32, ptr %6, align 4, !tbaa !61
  %14 = icmp ne i32 %13, 0
  br i1 %14, label %15, label %16

15:                                               ; preds = %2
  store ptr null, ptr %5, align 8, !tbaa !4
  br label %16

16:                                               ; preds = %15, %2
  %17 = load ptr, ptr %5, align 8, !tbaa !4
  call void @llvm.lifetime.end.p0(i64 4, ptr %6) #17
  call void @llvm.lifetime.end.p0(i64 8, ptr %5) #17
  ret ptr %17
}