; Function Attrs: mustprogress uwtable
define noundef ptr @_ZN4toku12lock_request17find_lock_requestERKm(ptr noundef nonnull readonly align 8 captures(none) dereferenceable(224) %0, ptr noundef nonnull align 8 dereferenceable(8) %1) local_unnamed_addr #0 align 2 {
  %3 = alloca i32, align 4
  %4 = alloca ptr, align 8
  call void @llvm.lifetime.start.p0(i64 8, ptr nonnull %4) #22
  %5 = getelementptr inbounds nuw i8, ptr %0, i64 152
  %6 = load ptr, ptr %5, align 8, !tbaa !25
  call void @llvm.lifetime.start.p0(i64 4, ptr nonnull %3) #22
  %7 = load i8, ptr %6, align 8, !tbaa !48, !range !50, !noundef !51
  %8 = trunc nuw i8 %7 to i1
  %9 = getelementptr inbounds nuw i8, ptr %6, i64 8
  br i1 %8, label %10, label %35

10:                                               ; preds = %2
  %11 = getelementptr inbounds nuw i8, ptr %6, i64 12
  %12 = load i32, ptr %11, align 4, !tbaa !30
  %.not38.i.i = icmp eq i32 %12, 0
  br i1 %.not38.i.i, label %_ZNK4toku3omtIPNS_12lock_requestES2_Lb0EE9find_zeroImTnPFiRKS2_RKT_EXadL_ZNS1_13find_by_txnidES6_RKmEEEEiS9_PS2_Pj.exit, label %.lr.ph.i.i

.lr.ph.i.i:                                       ; preds = %10
  %13 = load i32, ptr %9, align 8, !tbaa !30
  %14 = add i32 %12, %13
  %15 = getelementptr inbounds nuw i8, ptr %6, i64 16
  %16 = load ptr, ptr %15, align 8, !tbaa !30
  %17 = load i64, ptr %1, align 8, !tbaa !47
  br label %18

18:                                               ; preds = %30, %.lr.ph.i.i
  %.02442.i.i = phi i32 [ %13, %.lr.ph.i.i ], [ %.1.i.i, %30 ]
  %.02541.i.i = phi i32 [ -1, %.lr.ph.i.i ], [ %.126.i.i, %30 ]
  %.02740.i.i = phi i32 [ -1, %.lr.ph.i.i ], [ %.128.i.i, %30 ]
  %.02939.i.i = phi i32 [ %14, %.lr.ph.i.i ], [ %.130.i.i, %30 ]
  %19 = add i32 %.02939.i.i, %.02442.i.i
  %20 = lshr i32 %19, 1
  %21 = zext nneg i32 %20 to i64
  %22 = getelementptr inbounds nuw ptr, ptr %16, i64 %21
  %23 = load ptr, ptr %22, align 8, !tbaa !52
  %24 = load i64, ptr %23, align 8, !tbaa !42
  %25 = icmp ult i64 %24, %17
  br i1 %25, label %26, label %28

26:                                               ; preds = %18
  %27 = add nuw i32 %20, 1
  br label %30

28:                                               ; preds = %18
  %.not37.i.i = icmp eq i64 %24, %17
  %.027..i.i = select i1 %.not37.i.i, i32 %.02740.i.i, i32 %20
  %..025.i.i = select i1 %.not37.i.i, i32 %20, i32 %.02541.i.i
  %29 = freeze i32 %.027..i.i
  br label %30

30:                                               ; preds = %28, %26
  %.130.i.i = phi i32 [ %.02939.i.i, %26 ], [ %20, %28 ]
  %.128.i.i = phi i32 [ %.02740.i.i, %26 ], [ %29, %28 ]
  %.126.i.i = phi i32 [ %.02541.i.i, %26 ], [ %..025.i.i, %28 ]
  %.1.i.i = phi i32 [ %27, %26 ], [ %.02442.i.i, %28 ]
  %.not.i.i = icmp eq i32 %.1.i.i, %.130.i.i
  br i1 %.not.i.i, label %._crit_edge.i.i, label %18, !llvm.loop !54

._crit_edge.i.i:                                  ; preds = %30
  %.not33.i.i = icmp eq i32 %.126.i.i, -1
  br i1 %.not33.i.i, label %_ZNK4toku3omtIPNS_12lock_requestES2_Lb0EE9find_zeroImTnPFiRKS2_RKT_EXadL_ZNS1_13find_by_txnidES6_RKmEEEEiS9_PS2_Pj.exit, label %31

31:                                               ; preds = %._crit_edge.i.i
  %32 = zext nneg i32 %.126.i.i to i64
  %33 = getelementptr inbounds nuw ptr, ptr %16, i64 %32
  %34 = load ptr, ptr %33, align 8, !tbaa !52
  store ptr %34, ptr %4, align 8, !tbaa !52
  br label %_ZNK4toku3omtIPNS_12lock_requestES2_Lb0EE9find_zeroImTnPFiRKS2_RKT_EXadL_ZNS1_13find_by_txnidES6_RKmEEEEiS9_PS2_Pj.exit

35:                                               ; preds = %2
  %36 = call noundef i32 @_ZNK4toku3omtIPNS_12lock_requestES2_Lb0EE18find_internal_zeroImTnPFiRKS2_RKT_EXadL_ZNS1_13find_by_txnidES6_RKmEEEEiRKNS_12omt_internal17subtree_templatedILb0EEES9_PS2_Pj(ptr noundef nonnull align 8 dereferenceable(24) %6, ptr noundef nonnull align 4 dereferenceable(4) %9, ptr noundef nonnull align 8 dereferenceable(8) %1, ptr noundef nonnull %4, ptr noundef nonnull %3)
  %37 = icmp eq i32 %36, 0
  br label %_ZNK4toku3omtIPNS_12lock_requestES2_Lb0EE9find_zeroImTnPFiRKS2_RKT_EXadL_ZNS1_13find_by_txnidES6_RKmEEEEiS9_PS2_Pj.exit

_ZNK4toku3omtIPNS_12lock_requestES2_Lb0EE9find_zeroImTnPFiRKS2_RKT_EXadL_ZNS1_13find_by_txnidES6_RKmEEEEiS9_PS2_Pj.exit: ; preds = %._crit_edge.i.i, %31, %10, %35
  %.0.i = phi i1 [ %37, %35 ], [ true, %31 ], [ false, %10 ], [ false, %._crit_edge.i.i ]
  call void @llvm.lifetime.end.p0(i64 4, ptr nonnull %3) #22
  %.pre = load ptr, ptr %4, align 8
  %38 = select i1 %.0.i, ptr %.pre, ptr null
  call void @llvm.lifetime.end.p0(i64 8, ptr nonnull %4) #22
  ret ptr %38
}